; Function Attrs: mustprogress uwtable
define void @_ZN6google10LogMessage16SendToSinkAndLogEv(ptr noundef nonnull align 8 dereferenceable(96) %0) #0 align 2 {
  %2 = getelementptr inbounds nuw i8, ptr %0, i64 8
  %3 = load ptr, ptr %2, align 8, !tbaa !91
  %4 = getelementptr inbounds nuw i8, ptr %3, i64 30384
  %5 = load ptr, ptr %4, align 8, !tbaa !51
  %.not.i = icmp eq ptr %5, null
  br i1 %.not.i, label %_ZN6google10LogMessage10SendToSinkEv.exit, label %6

6:                                                ; preds = %1
  %7 = getelementptr inbounds nuw i8, ptr %3, i64 30360
  %8 = load i32, ptr %7, align 8, !tbaa !99
  %9 = getelementptr inbounds nuw i8, ptr %3, i64 30424
  %10 = load ptr, ptr %9, align 8, !tbaa !104
  %11 = getelementptr inbounds nuw i8, ptr %3, i64 30416
  %12 = load ptr, ptr %11, align 8, !tbaa !103
  %13 = getelementptr inbounds nuw i8, ptr %3, i64 30364
  %14 = load i32, ptr %13, align 4, !tbaa !100
  %15 = getelementptr inbounds nuw i8, ptr %0, i64 16
  %16 = getelementptr inbounds nuw i8, ptr %3, i64 4
  %17 = getelementptr inbounds nuw i8, ptr %3, i64 30392
  %18 = load i64, ptr %17, align 8, !tbaa !125
  %19 = getelementptr inbounds nuw i8, ptr %16, i64 %18
  %20 = getelementptr inbounds nuw i8, ptr %3, i64 30400
  %21 = load i64, ptr %20, align 8, !tbaa !128
  %22 = xor i64 %18, -1
  %23 = add i64 %21, %22
  %24 = load ptr, ptr %5, align 8, !tbaa !3
  %25 = getelementptr inbounds nuw i8, ptr %24, i64 16
  %26 = load ptr, ptr %25, align 8
  tail call void %26(ptr noundef nonnull align 8 dereferenceable(8) %5, i32 noundef %8, ptr noundef %10, ptr noundef %12, i32 noundef %14, ptr noundef nonnull align 8 dereferenceable(80) %15, ptr noundef nonnull %19, i64 noundef %23)
  br label %_ZN6google10LogMessage10SendToSinkEv.exit

_ZN6google10LogMessage10SendToSinkEv.exit:        ; preds = %1, %6
  tail call void @_ZN6google10LogMessage9SendToLogEv(ptr noundef nonnull align 8 dereferenceable(96) %0)
  ret void
}